target datalayout = "e-m:e-p270:32:32-p271:32:32-p272:64:64-i64:64-i128:128-f80:128-n8:16:32:64-S128"
target triple = "x86_64-pc-linux-gnu"

%struct.png_struct_def = type { [1 x %struct.__jmp_buf_tag], ptr, ptr, i64, ptr, ptr, ptr, ptr, ptr, ptr, ptr, ptr, ptr, i8, i8, i32, i32, i32, i32, %struct.z_stream_s, ptr, i32, i32, i32, i32, i32, i32, i32, i32, i32, i32, i32, i32, i32, i32, i32, i32, i32, i32, i32, i32, i32, i64, i32, i32, i32, ptr, ptr, ptr, ptr, i64, i32, i32, ptr, i16, i32, i16, i8, i8, i8, i8, i8, i8, i8, i8, i8, i8, i8, i8, i8, i8, i8, i16, i8, i32, %struct.png_color_16_struct, %struct.png_color_16_struct, ptr, i32, i32, %struct.png_xy, i32, i32, i32, i32, i32, ptr, ptr, ptr, ptr, ptr, ptr, %struct.png_color_8_struct, %struct.png_color_8_struct, ptr, %struct.png_color_16_struct, ptr, ptr, ptr, ptr, ptr, ptr, ptr, ptr, ptr, i32, i32, i64, i64, i64, i64, i32, i32, ptr, ptr, i32, [29 x i8], i32, ptr, ptr, i32, i32, ptr, i8, i8, i16, i16, ptr, i32, i8, ptr, ptr, ptr, ptr, ptr, ptr, ptr, i8, i32, i32, i32, i64, %struct.png_unknown_chunk_t, i64, ptr, i64, i32, i32, ptr, [4 x ptr] }
%struct.__jmp_buf_tag = type { [8 x i64], i32, %struct.__sigset_t }
%struct.__sigset_t = type { [16 x i64] }
%struct.z_stream_s = type { ptr, i32, i64, ptr, i32, i64, ptr, ptr, ptr, ptr, ptr, i32, i64, i64 }
%struct.png_xy = type { i32, i32, i32, i32, i32, i32, i32, i32 }
%struct.png_color_8_struct = type { i8, i8, i8, i8, i8 }
%struct.png_color_16_struct = type { i8, i16, i16, i16, i16 }
%struct.png_unknown_chunk_t = type { [5 x i8], ptr, i64, i8 }

@.str.38 = private unnamed_addr constant [42 x i8] c"Unrecognized equation type for pCAL chunk\00", align 1
@.str.39 = private unnamed_addr constant [22 x i8] c"pCAL: invalid keyword\00", align 1

; Function Attrs: nounwind uwtable
define void @png_save_uint_32(ptr noundef %0, i32 noundef %1) #0 {
  %3 = alloca ptr, align 8
  %4 = alloca i32, align 4
  store ptr %0, ptr %3, align 8, !tbaa !3
  store i32 %1, ptr %4, align 4, !tbaa !8
  %5 = load i32, ptr %4, align 4, !tbaa !8
  %6 = lshr i32 %5, 24
  %7 = and i32 %6, 255
  %8 = trunc i32 %7 to i8
  %9 = load ptr, ptr %3, align 8, !tbaa !3
  %10 = getelementptr inbounds i8, ptr %9, i64 0
  store i8 %8, ptr %10, align 1, !tbaa !10
  %11 = load i32, ptr %4, align 4, !tbaa !8
  %12 = lshr i32 %11, 16
  %13 = and i32 %12, 255
  %14 = trunc i32 %13 to i8
  %15 = load ptr, ptr %3, align 8, !tbaa !3
  %16 = getelementptr inbounds i8, ptr %15, i64 1
  store i8 %14, ptr %16, align 1, !tbaa !10
  %17 = load i32, ptr %4, align 4, !tbaa !8
  %18 = lshr i32 %17, 8
  %19 = and i32 %18, 255
  %20 = trunc i32 %19 to i8
  %21 = load ptr, ptr %3, align 8, !tbaa !3
  %22 = getelementptr inbounds i8, ptr %21, i64 2
  store i8 %20, ptr %22, align 1, !tbaa !10
  %23 = load i32, ptr %4, align 4, !tbaa !8
  %24 = and i32 %23, 255
  %25 = trunc i32 %24 to i8
  %26 = load ptr, ptr %3, align 8, !tbaa !3
  %27 = getelementptr inbounds i8, ptr %26, i64 3
  store i8 %25, ptr %27, align 1, !tbaa !10
  ret void
}

; Function Attrs: nounwind uwtable
define void @png_write_chunk_end(ptr noalias noundef %0) #0 {
  %2 = alloca ptr, align 8
  %3 = alloca [4 x i8], align 1
  %4 = alloca i32, align 4
  store ptr %0, ptr %2, align 8, !tbaa !11
  call void @llvm.lifetime.start.p0(i64 4, ptr %3) #7
  %5 = load ptr, ptr %2, align 8, !tbaa !11
  %6 = icmp eq ptr %5, null
  br i1 %6, label %7, label %8

7:                                                ; preds = %1
  store i32 1, ptr %4, align 4
  br label %17

8:                                                ; preds = %1
  %9 = load ptr, ptr %2, align 8, !tbaa !11
  %10 = getelementptr inbounds nuw %struct.png_struct_def, ptr %9, i32 0, i32 147
  store i32 130, ptr %10, align 4, !tbaa !13
  %11 = getelementptr inbounds [4 x i8], ptr %3, i64 0, i64 0
  %12 = load ptr, ptr %2, align 8, !tbaa !11
  %13 = getelementptr inbounds nuw %struct.png_struct_def, ptr %12, i32 0, i32 52
  %14 = load i32, ptr %13, align 4, !tbaa !31
  call void @png_save_uint_32(ptr noundef %11, i32 noundef %14)
  %15 = load ptr, ptr %2, align 8, !tbaa !11
  %16 = getelementptr inbounds [4 x i8], ptr %3, i64 0, i64 0
  call void @png_write_data(ptr noundef %15, ptr noundef %16, i64 noundef 4)
  store i32 0, ptr %4, align 4
  br label %17

17:                                               ; preds = %8, %7
  call void @llvm.lifetime.end.p0(i64 4, ptr %3) #7
  %18 = load i32, ptr %4, align 4
  switch i32 %18, label %20 [
    i32 0, label %19
    i32 1, label %19
  ]

19:                                               ; preds = %17, %17
  ret void

20:                                               ; preds = %17
  unreachable
}

; Function Attrs: nounwind uwtable
define void @png_write_chunk_data(ptr noalias noundef %0, ptr noundef %1, i64 noundef %2) #0 {
  %4 = alloca ptr, align 8
  %5 = alloca ptr, align 8
  %6 = alloca i64, align 8
  store ptr %0, ptr %4, align 8, !tbaa !11
  store ptr %1, ptr %5, align 8, !tbaa !3
  store i64 %2, ptr %6, align 8, !tbaa !30
  %7 = load ptr, ptr %4, align 8, !tbaa !11
  %8 = icmp eq ptr %7, null
  br i1 %8, label %9, label %10

9:                                                ; preds = %3
  br label %23

10:                                               ; preds = %3
  %11 = load ptr, ptr %5, align 8, !tbaa !3
  %12 = icmp ne ptr %11, null
  br i1 %12, label %13, label %23

13:                                               ; preds = %10
  %14 = load i64, ptr %6, align 8, !tbaa !30
  %15 = icmp ugt i64 %14, 0
  br i1 %15, label %16, label %23

16:                                               ; preds = %13
  %17 = load ptr, ptr %4, align 8, !tbaa !11
  %18 = load ptr, ptr %5, align 8, !tbaa !3
  %19 = load i64, ptr %6, align 8, !tbaa !30
  call void @png_write_data(ptr noundef %17, ptr noundef %18, i64 noundef %19)
  %20 = load ptr, ptr %4, align 8, !tbaa !11
  %21 = load ptr, ptr %5, align 8, !tbaa !3
  %22 = load i64, ptr %6, align 8, !tbaa !30
  call void @png_calculate_crc(ptr noundef %20, ptr noundef %21, i64 noundef %22)
  br label %23

23:                                               ; preds = %9, %16, %13, %10
  ret void
}

; Function Attrs: nounwind uwtable
define internal void @png_write_chunk_header(ptr noalias noundef %0, i32 noundef %1, i32 noundef %2) #0 {
  %4 = alloca ptr, align 8
  %5 = alloca i32, align 4
  %6 = alloca i32, align 4
  %7 = alloca [8 x i8], align 1
  %8 = alloca i32, align 4
  store ptr %0, ptr %4, align 8, !tbaa !11
  store i32 %1, ptr %5, align 4, !tbaa !8
  store i32 %2, ptr %6, align 4, !tbaa !8
  call void @llvm.lifetime.start.p0(i64 8, ptr %7) #7
  %9 = load ptr, ptr %4, align 8, !tbaa !11
  %10 = icmp eq ptr %9, null
  br i1 %10, label %11, label %12

11:                                               ; preds = %3
  store i32 1, ptr %8, align 4
  br label %31

12:                                               ; preds = %3
  %13 = load ptr, ptr %4, align 8, !tbaa !11
  %14 = getelementptr inbounds nuw %struct.png_struct_def, ptr %13, i32 0, i32 147
  store i32 34, ptr %14, align 4, !tbaa !13
  %15 = getelementptr inbounds [8 x i8], ptr %7, i64 0, i64 0
  %16 = load i32, ptr %6, align 4, !tbaa !8
  call void @png_save_uint_32(ptr noundef %15, i32 noundef %16)
  %17 = getelementptr inbounds [8 x i8], ptr %7, i64 0, i64 0
  %18 = getelementptr inbounds i8, ptr %17, i64 4
  %19 = load i32, ptr %5, align 4, !tbaa !8
  call void @png_save_uint_32(ptr noundef %18, i32 noundef %19)
  %20 = load ptr, ptr %4, align 8, !tbaa !11
  %21 = getelementptr inbounds [8 x i8], ptr %7, i64 0, i64 0
  call void @png_write_data(ptr noundef %20, ptr noundef %21, i64 noundef 8)
  %22 = load i32, ptr %5, align 4, !tbaa !8
  %23 = load ptr, ptr %4, align 8, !tbaa !11
  %24 = getelementptr inbounds nuw %struct.png_struct_def, ptr %23, i32 0, i32 45
  store i32 %22, ptr %24, align 8, !tbaa !29
  %25 = load ptr, ptr %4, align 8, !tbaa !11
  call void @png_reset_crc(ptr noundef %25)
  %26 = load ptr, ptr %4, align 8, !tbaa !11
  %27 = getelementptr inbounds [8 x i8], ptr %7, i64 0, i64 0
  %28 = getelementptr inbounds i8, ptr %27, i64 4
  call void @png_calculate_crc(ptr noundef %26, ptr noundef %28, i64 noundef 4)
  %29 = load ptr, ptr %4, align 8, !tbaa !11
  %30 = getelementptr inbounds nuw %struct.png_struct_def, ptr %29, i32 0, i32 147
  store i32 66, ptr %30, align 4, !tbaa !13
  store i32 0, ptr %8, align 4
  br label %31

31:                                               ; preds = %12, %11
  call void @llvm.lifetime.end.p0(i64 8, ptr %7) #7
  %32 = load i32, ptr %8, align 4
  switch i32 %32, label %34 [
    i32 0, label %33
    i32 1, label %33
  ]

33:                                               ; preds = %31, %31
  ret void

34:                                               ; preds = %31
  unreachable
}

; Function Attrs: nounwind uwtable
define void @png_write_pCAL(ptr noalias noundef %0, ptr noundef %1, i32 noundef %2, i32 noundef %3, i32 noundef %4, i32 noundef %5, ptr noundef %6, ptr noundef %7) #0 {
  %9 = alloca ptr, align 8
  %10 = alloca ptr, align 8
  %11 = alloca i32, align 4
  %12 = alloca i32, align 4
  %13 = alloca i32, align 4
  %14 = alloca i32, align 4
  %15 = alloca ptr, align 8
  %16 = alloca ptr, align 8
  %17 = alloca i32, align 4
  %18 = alloca i64, align 8
  %19 = alloca i64, align 8
  %20 = alloca ptr, align 8
  %21 = alloca [10 x i8], align 1
  %22 = alloca [80 x i8], align 16
  %23 = alloca i32, align 4
  store ptr %0, ptr %9, align 8, !tbaa !11
  store ptr %1, ptr %10, align 8, !tbaa !3
  store i32 %2, ptr %11, align 4, !tbaa !8
  store i32 %3, ptr %12, align 4, !tbaa !8
  store i32 %4, ptr %13, align 4, !tbaa !8
  store i32 %5, ptr %14, align 4, !tbaa !8
  store ptr %6, ptr %15, align 8, !tbaa !3
  store ptr %7, ptr %16, align 8, !tbaa !139
  call void @llvm.lifetime.start.p0(i64 4, ptr %17) #7
  call void @llvm.lifetime.start.p0(i64 8, ptr %18) #7
  call void @llvm.lifetime.start.p0(i64 8, ptr %19) #7
  call void @llvm.lifetime.start.p0(i64 8, ptr %20) #7
  call void @llvm.lifetime.start.p0(i64 10, ptr %21) #7
  call void @llvm.lifetime.start.p0(i64 80, ptr %22) #7
  call void @llvm.lifetime.start.p0(i64 4, ptr %23) #7
  %24 = load i32, ptr %13, align 4, !tbaa !8
  %25 = icmp sge i32 %24, 4
  br i1 %25, label %26, label %28

26:                                               ; preds = %8
  %27 = load ptr, ptr %9, align 8, !tbaa !11
  call void @png_error(ptr noundef %27, ptr noundef @.str.38) #8
  unreachable

28:                                               ; preds = %8
  %29 = load ptr, ptr %9, align 8, !tbaa !11
  %30 = load ptr, ptr %10, align 8, !tbaa !3
  %31 = getelementptr inbounds [80 x i8], ptr %22, i64 0, i64 0
  %32 = call i32 @png_check_keyword(ptr noundef %29, ptr noundef %30, ptr noundef %31)
  store i32 %32, ptr %17, align 4, !tbaa !8
  %33 = load i32, ptr %17, align 4, !tbaa !8
  %34 = icmp eq i32 %33, 0
  br i1 %34, label %35, label %37

35:                                               ; preds = %28
  %36 = load ptr, ptr %9, align 8, !tbaa !11
  call void @png_error(ptr noundef %36, ptr noundef @.str.39) #8
  unreachable

37:                                               ; preds = %28
  %38 = load i32, ptr %17, align 4, !tbaa !8
  %39 = add i32 %38, 1
  store i32 %39, ptr %17, align 4, !tbaa !8
  %40 = load ptr, ptr %15, align 8, !tbaa !3
  %41 = call i64 @strlen(ptr noundef %40) #9
  %42 = load i32, ptr %14, align 4, !tbaa !8
  %43 = icmp eq i32 %42, 0
  %44 = select i1 %43, i32 0, i32 1
  %45 = sext i32 %44 to i64
  %46 = add i64 %41, %45
  store i64 %46, ptr %18, align 8, !tbaa !30
  %47 = load i32, ptr %17, align 4, !tbaa !8
  %48 = zext i32 %47 to i64
  %49 = load i64, ptr %18, align 8, !tbaa !30
  %50 = add i64 %48, %49
  %51 = add i64 %50, 10
  store i64 %51, ptr %19, align 8, !tbaa !30
  %52 = load ptr, ptr %9, align 8, !tbaa !11
  %53 = load i32, ptr %14, align 4, !tbaa !8
  %54 = sext i32 %53 to i64
  %55 = mul i64 %54, 8
  %56 = call noalias ptr @png_malloc(ptr noundef %52, i64 noundef %55)
  store ptr %56, ptr %20, align 8, !tbaa !141
  store i32 0, ptr %23, align 4, !tbaa !8
  br label %57

57:                                               ; preds = %86, %37
  %58 = load i32, ptr %23, align 4, !tbaa !8
  %59 = load i32, ptr %14, align 4, !tbaa !8
  %60 = icmp slt i32 %58, %59
  br i1 %60, label %61, label %89

61:                                               ; preds = %57
  %62 = load ptr, ptr %16, align 8, !tbaa !139
  %63 = load i32, ptr %23, align 4, !tbaa !8
  %64 = sext i32 %63 to i64
  %65 = getelementptr inbounds ptr, ptr %62, i64 %64
  %66 = load ptr, ptr %65, align 8, !tbaa !3
  %67 = call i64 @strlen(ptr noundef %66) #9
  %68 = load i32, ptr %23, align 4, !tbaa !8
  %69 = load i32, ptr %14, align 4, !tbaa !8
  %70 = sub nsw i32 %69, 1
  %71 = icmp eq i32 %68, %70
  %72 = select i1 %71, i32 0, i32 1
  %73 = sext i32 %72 to i64
  %74 = add i64 %67, %73
  %75 = load ptr, ptr %20, align 8, !tbaa !141
  %76 = load i32, ptr %23, align 4, !tbaa !8
  %77 = sext i32 %76 to i64
  %78 = getelementptr inbounds i64, ptr %75, i64 %77
  store i64 %74, ptr %78, align 8, !tbaa !30
  %79 = load ptr, ptr %20, align 8, !tbaa !141
  %80 = load i32, ptr %23, align 4, !tbaa !8
  %81 = sext i32 %80 to i64
  %82 = getelementptr inbounds i64, ptr %79, i64 %81
  %83 = load i64, ptr %82, align 8, !tbaa !30
  %84 = load i64, ptr %19, align 8, !tbaa !30
  %85 = add i64 %84, %83
  store i64 %85, ptr %19, align 8, !tbaa !30
  br label %86

86:                                               ; preds = %61
  %87 = load i32, ptr %23, align 4, !tbaa !8
  %88 = add nsw i32 %87, 1
  store i32 %88, ptr %23, align 4, !tbaa !8
  br label %57, !llvm.loop !143

89:                                               ; preds = %57
  %90 = load ptr, ptr %9, align 8, !tbaa !11
  %91 = load i64, ptr %19, align 8, !tbaa !30
  %92 = trunc i64 %91 to i32
  call void @png_write_chunk_header(ptr noundef %90, i32 noundef 1883455820, i32 noundef %92)
  %93 = load ptr, ptr %9, align 8, !tbaa !11
  %94 = getelementptr inbounds [80 x i8], ptr %22, i64 0, i64 0
  %95 = load i32, ptr %17, align 4, !tbaa !8
  %96 = zext i32 %95 to i64
  call void @png_write_chunk_data(ptr noundef %93, ptr noundef %94, i64 noundef %96)
  %97 = getelementptr inbounds [10 x i8], ptr %21, i64 0, i64 0
  %98 = load i32, ptr %11, align 4, !tbaa !8
  call void @png_save_int_32(ptr noundef %97, i32 noundef %98)
  %99 = getelementptr inbounds [10 x i8], ptr %21, i64 0, i64 0
  %100 = getelementptr inbounds i8, ptr %99, i64 4
  %101 = load i32, ptr %12, align 4, !tbaa !8
  call void @png_save_int_32(ptr noundef %100, i32 noundef %101)
  %102 = load i32, ptr %13, align 4, !tbaa !8
  %103 = trunc i32 %102 to i8
  %104 = getelementptr inbounds [10 x i8], ptr %21, i64 0, i64 8
  store i8 %103, ptr %104, align 1, !tbaa !10
  %105 = load i32, ptr %14, align 4, !tbaa !8
  %106 = trunc i32 %105 to i8
  %107 = getelementptr inbounds [10 x i8], ptr %21, i64 0, i64 9
  store i8 %106, ptr %107, align 1, !tbaa !10
  %108 = load ptr, ptr %9, align 8, !tbaa !11
  %109 = getelementptr inbounds [10 x i8], ptr %21, i64 0, i64 0
  call void @png_write_chunk_data(ptr noundef %108, ptr noundef %109, i64 noundef 10)
  %110 = load ptr, ptr %9, align 8, !tbaa !11
  %111 = load ptr, ptr %15, align 8, !tbaa !3
  %112 = load i64, ptr %18, align 8, !tbaa !30
  call void @png_write_chunk_data(ptr noundef %110, ptr noundef %111, i64 noundef %112)
  store i32 0, ptr %23, align 4, !tbaa !8
  br label %113

113:                                              ; preds = %129, %89
  %114 = load i32, ptr %23, align 4, !tbaa !8
  %115 = load i32, ptr %14, align 4, !tbaa !8
  %116 = icmp slt i32 %114, %115
  br i1 %116, label %117, label %132

117:                                              ; preds = %113
  %118 = load ptr, ptr %9, align 8, !tbaa !11
  %119 = load ptr, ptr %16, align 8, !tbaa !139
  %120 = load i32, ptr %23, align 4, !tbaa !8
  %121 = sext i32 %120 to i64
  %122 = getelementptr inbounds ptr, ptr %119, i64 %121
  %123 = load ptr, ptr %122, align 8, !tbaa !3
  %124 = load ptr, ptr %20, align 8, !tbaa !141
  %125 = load i32, ptr %23, align 4, !tbaa !8
  %126 = sext i32 %125 to i64
  %127 = getelementptr inbounds i64, ptr %124, i64 %126
  %128 = load i64, ptr %127, align 8, !tbaa !30
  call void @png_write_chunk_data(ptr noundef %118, ptr noundef %123, i64 noundef %128)
  br label %129

129:                                              ; preds = %117
  %130 = load i32, ptr %23, align 4, !tbaa !8
  %131 = add nsw i32 %130, 1
  store i32 %131, ptr %23, align 4, !tbaa !8
  br label %113, !llvm.loop !144

132:                                              ; preds = %113
  %133 = load ptr, ptr %9, align 8, !tbaa !11
  %134 = load ptr, ptr %20, align 8, !tbaa !141
  call void @png_free(ptr noundef %133, ptr noundef %134)
  %135 = load ptr, ptr %9, align 8, !tbaa !11
  call void @png_write_chunk_end(ptr noundef %135)
  call void @llvm.lifetime.end.p0(i64 4, ptr %23) #7
  call void @llvm.lifetime.end.p0(i64 80, ptr %22) #7
  call void @llvm.lifetime.end.p0(i64 10, ptr %21) #7
  call void @llvm.lifetime.end.p0(i64 8, ptr %20) #7
  call void @llvm.lifetime.end.p0(i64 8, ptr %19) #7
  call void @llvm.lifetime.end.p0(i64 8, ptr %18) #7
  call void @llvm.lifetime.end.p0(i64 4, ptr %17) #7
  ret void
}