; Function Attrs: nounwind uwtable
define void @png_write_pCAL(ptr noalias noundef %0, ptr noundef %1, i32 noundef %2, i32 noundef %3, i32 noundef %4, i32 noundef %5, ptr noundef %6, ptr noundef readonly captures(none) %7) local_unnamed_addr #1 {
  %9 = alloca [4 x i8], align 1
  %10 = alloca [8 x i8], align 1
  %11 = alloca [10 x i8], align 1
  %12 = alloca [80 x i8], align 16
  call void @llvm.lifetime.start.p0(i64 10, ptr nonnull %11) #12
  call void @llvm.lifetime.start.p0(i64 80, ptr nonnull %12) #12
  %13 = icmp sgt i32 %4, 3
  br i1 %13, label %14, label %15

14:                                               ; preds = %8
  tail call void @png_error(ptr noundef %0, ptr noundef nonnull @.str.38) #13
  unreachable

15:                                               ; preds = %8
  %16 = call i32 @png_check_keyword(ptr noundef %0, ptr noundef %1, ptr noundef nonnull %12) #12
  %17 = icmp eq i32 %16, 0
  br i1 %17, label %18, label %19

18:                                               ; preds = %15
  call void @png_error(ptr noundef %0, ptr noundef nonnull @.str.39) #13
  unreachable

19:                                               ; preds = %15
  %20 = add i32 %16, 1
  %21 = call i64 @strlen(ptr noundef nonnull dereferenceable(1) %6) #14
  %22 = icmp ne i32 %5, 0
  %23 = zext i1 %22 to i64
  %24 = add i64 %21, %23
  %25 = zext i32 %20 to i64
  %26 = add nuw nsw i64 %25, 10
  %27 = add i64 %26, %24
  %28 = sext i32 %5 to i64
  %29 = shl nsw i64 %28, 3
  %30 = call noalias ptr @png_malloc(ptr noundef %0, i64 noundef %29) #12
  %31 = icmp sgt i32 %5, 0
  br i1 %31, label %.lr.ph, label %._crit_edge

.lr.ph:                                           ; preds = %19
  %32 = add nsw i32 %5, -1
  %33 = zext nneg i32 %32 to i64
  %wide.trip.count = zext nneg i32 %5 to i64
  br label %34

34:                                               ; preds = %.lr.ph, %34
  %indvars.iv = phi i64 [ 0, %.lr.ph ], [ %indvars.iv.next, %34 ]
  %.04762 = phi i64 [ %27, %.lr.ph ], [ %42, %34 ]
  %35 = getelementptr inbounds nuw ptr, ptr %7, i64 %indvars.iv
  %36 = load ptr, ptr %35, align 8, !tbaa !224
  %37 = call i64 @strlen(ptr noundef nonnull dereferenceable(1) %36) #14
  %38 = icmp ne i64 %indvars.iv, %33
  %39 = zext i1 %38 to i64
  %40 = add i64 %37, %39
  %41 = getelementptr inbounds nuw i64, ptr %30, i64 %indvars.iv
  store i64 %40, ptr %41, align 8, !tbaa !225
  %42 = add i64 %40, %.04762
  %indvars.iv.next = add nuw nsw i64 %indvars.iv, 1
  %exitcond.not = icmp eq i64 %indvars.iv.next, %wide.trip.count
  br i1 %exitcond.not, label %._crit_edge, label %34, !llvm.loop !226

._crit_edge:                                      ; preds = %34, %19
  %.047.lcssa = phi i64 [ %27, %19 ], [ %42, %34 ]
  call void @llvm.experimental.noalias.scope.decl(metadata !227)
  call void @llvm.lifetime.start.p0(i64 8, ptr nonnull %10) #12, !noalias !227
  %.not67 = icmp eq ptr %0, null
  br i1 %.not67, label %png_write_chunk_header.exit.thread, label %png_write_chunk_header.exit

png_write_chunk_header.exit.thread:               ; preds = %._crit_edge
  call void @llvm.lifetime.end.p0(i64 8, ptr nonnull %10) #12, !noalias !227
  br label %png_write_chunk_data.exit

png_write_chunk_header.exit:                      ; preds = %._crit_edge
  %43 = getelementptr inbounds nuw i8, ptr %0, i64 1196
  store i32 34, ptr %43, align 4, !tbaa !6, !alias.scope !227
  %44 = lshr i64 %.047.lcssa, 24
  %45 = trunc i64 %44 to i8
  store i8 %45, ptr %10, align 1, !tbaa !3, !noalias !227
  %46 = lshr i64 %.047.lcssa, 16
  %47 = trunc i64 %46 to i8
  %48 = getelementptr inbounds nuw i8, ptr %10, i64 1
  store i8 %47, ptr %48, align 1, !tbaa !3, !noalias !227
  %49 = lshr i64 %.047.lcssa, 8
  %50 = trunc i64 %49 to i8
  %51 = getelementptr inbounds nuw i8, ptr %10, i64 2
  store i8 %50, ptr %51, align 1, !tbaa !3, !noalias !227
  %52 = trunc i64 %.047.lcssa to i8
  %53 = getelementptr inbounds nuw i8, ptr %10, i64 3
  store i8 %52, ptr %53, align 1, !tbaa !3, !noalias !227
  %54 = getelementptr inbounds nuw i8, ptr %10, i64 4
  store i8 112, ptr %54, align 1, !tbaa !3, !noalias !227
  %55 = getelementptr inbounds nuw i8, ptr %10, i64 5
  store i8 67, ptr %55, align 1, !tbaa !3, !noalias !227
  %56 = getelementptr inbounds nuw i8, ptr %10, i64 6
  store i8 65, ptr %56, align 1, !tbaa !3, !noalias !227
  %57 = getelementptr inbounds nuw i8, ptr %10, i64 7
  store i8 76, ptr %57, align 1, !tbaa !3, !noalias !227
  call void @png_write_data(ptr noundef nonnull %0, ptr noundef nonnull %10, i64 noundef 8) #12
  %58 = getelementptr inbounds nuw i8, ptr %0, i64 544
  store i32 1883455820, ptr %58, align 8, !tbaa !28, !alias.scope !227
  call void @png_reset_crc(ptr noundef nonnull %0) #12
  call void @png_calculate_crc(ptr noundef nonnull %0, ptr noundef nonnull %54, i64 noundef 4) #12
  store i32 66, ptr %43, align 4, !tbaa !6, !alias.scope !227
  call void @llvm.lifetime.end.p0(i64 8, ptr nonnull %10) #12, !noalias !227
  %.not = icmp eq i32 %20, 0
  br i1 %.not, label %png_write_chunk_data.exit, label %59

59:                                               ; preds = %png_write_chunk_header.exit
  call void @png_write_data(ptr noundef nonnull %0, ptr noundef nonnull %12, i64 noundef %25) #12
  call void @png_calculate_crc(ptr noundef nonnull %0, ptr noundef nonnull %12, i64 noundef %25) #12
  br label %png_write_chunk_data.exit

png_write_chunk_data.exit:                        ; preds = %png_write_chunk_header.exit.thread, %png_write_chunk_header.exit, %59
  call void @png_save_int_32(ptr noundef nonnull %11, i32 noundef %2) #12
  %60 = getelementptr inbounds nuw i8, ptr %11, i64 4
  call void @png_save_int_32(ptr noundef nonnull %60, i32 noundef %3) #12
  %61 = trunc i32 %4 to i8
  %62 = getelementptr inbounds nuw i8, ptr %11, i64 8
  store i8 %61, ptr %62, align 1, !tbaa !3
  %63 = trunc i32 %5 to i8
  %64 = getelementptr inbounds nuw i8, ptr %11, i64 9
  store i8 %63, ptr %64, align 1, !tbaa !3
  br i1 %.not67, label %._crit_edge66.thread, label %png_write_chunk_data.exit53

png_write_chunk_data.exit53:                      ; preds = %png_write_chunk_data.exit
  call void @png_write_data(ptr noundef nonnull %0, ptr noundef nonnull %11, i64 noundef 10) #12
  call void @png_calculate_crc(ptr noundef nonnull %0, ptr noundef nonnull %11, i64 noundef 10) #12
  %.not61 = icmp eq i64 %24, 0
  br i1 %.not61, label %png_write_chunk_data.exit55, label %65

65:                                               ; preds = %png_write_chunk_data.exit53
  call void @png_write_data(ptr noundef nonnull %0, ptr noundef nonnull %6, i64 noundef %24) #12
  call void @png_calculate_crc(ptr noundef nonnull %0, ptr noundef nonnull %6, i64 noundef %24) #12
  br label %png_write_chunk_data.exit55

png_write_chunk_data.exit55:                      ; preds = %png_write_chunk_data.exit53, %65
  br i1 %31, label %.lr.ph65.split.preheader, label %._crit_edge66

.lr.ph65.split.preheader:                         ; preds = %png_write_chunk_data.exit55
  %wide.trip.count73 = zext nneg i32 %5 to i64
  br label %.lr.ph65.split

.lr.ph65.split:                                   ; preds = %.lr.ph65.split.preheader, %png_write_chunk_data.exit58
  %indvars.iv70 = phi i64 [ 0, %.lr.ph65.split.preheader ], [ %indvars.iv.next71, %png_write_chunk_data.exit58 ]
  %66 = getelementptr inbounds nuw ptr, ptr %7, i64 %indvars.iv70
  %67 = load ptr, ptr %66, align 8, !tbaa !224
  %68 = getelementptr inbounds nuw i64, ptr %30, i64 %indvars.iv70
  %69 = load i64, ptr %68, align 8, !tbaa !225
  %70 = icmp ne ptr %67, null
  %71 = icmp ne i64 %69, 0
  %72 = and i1 %70, %71
  br i1 %72, label %73, label %png_write_chunk_data.exit58

73:                                               ; preds = %.lr.ph65.split
  call void @png_write_data(ptr noundef nonnull %0, ptr noundef nonnull %67, i64 noundef %69) #12
  call void @png_calculate_crc(ptr noundef nonnull %0, ptr noundef nonnull %67, i64 noundef %69) #12
  br label %png_write_chunk_data.exit58

png_write_chunk_data.exit58:                      ; preds = %.lr.ph65.split, %73
  %indvars.iv.next71 = add nuw nsw i64 %indvars.iv70, 1
  %exitcond74.not = icmp eq i64 %indvars.iv.next71, %wide.trip.count73
  br i1 %exitcond74.not, label %._crit_edge66, label %.lr.ph65.split, !llvm.loop !230

._crit_edge66.thread:                             ; preds = %png_write_chunk_data.exit
  call void @png_free(ptr noundef %0, ptr noundef %30) #12
  call void @llvm.lifetime.start.p0(i64 4, ptr nonnull %9) #12, !noalias !231
  br label %png_write_chunk_end.exit

._crit_edge66:                                    ; preds = %png_write_chunk_data.exit58, %png_write_chunk_data.exit55
  call void @png_free(ptr noundef nonnull %0, ptr noundef %30) #12
  call void @llvm.experimental.noalias.scope.decl(metadata !234)
  call void @llvm.lifetime.start.p0(i64 4, ptr nonnull %9) #12, !noalias !234
  %74 = getelementptr inbounds nuw i8, ptr %0, i64 1196
  store i32 130, ptr %74, align 4, !tbaa !6, !alias.scope !234
  %75 = getelementptr inbounds nuw i8, ptr %0, i64 596
  %76 = load i32, ptr %75, align 4, !tbaa !29, !alias.scope !234
  %77 = lshr i32 %76, 24
  %78 = trunc nuw i32 %77 to i8
  store i8 %78, ptr %9, align 1, !tbaa !3, !noalias !234
  %79 = lshr i32 %76, 16
  %80 = trunc i32 %79 to i8
  %81 = getelementptr inbounds nuw i8, ptr %9, i64 1
  store i8 %80, ptr %81, align 1, !tbaa !3, !noalias !234
  %82 = lshr i32 %76, 8
  %83 = trunc i32 %82 to i8
  %84 = getelementptr inbounds nuw i8, ptr %9, i64 2
  store i8 %83, ptr %84, align 1, !tbaa !3, !noalias !234
  %85 = trunc i32 %76 to i8
  %86 = getelementptr inbounds nuw i8, ptr %9, i64 3
  store i8 %85, ptr %86, align 1, !tbaa !3, !noalias !234
  call void @png_write_data(ptr noundef nonnull %0, ptr noundef nonnull %9, i64 noundef 4) #12
  br label %png_write_chunk_end.exit

png_write_chunk_end.exit:                         ; preds = %._crit_edge66.thread, %._crit_edge66
  call void @llvm.lifetime.end.p0(i64 4, ptr nonnull %9) #12, !noalias !234
  call void @llvm.lifetime.end.p0(i64 80, ptr nonnull %12) #12
  call void @llvm.lifetime.end.p0(i64 10, ptr nonnull %11) #12
  ret void
}